target datalayout = "e-m:e-p270:32:32-p271:32:32-p272:64:64-i64:64-i128:128-f80:128-n8:16:32:64-S128"
target triple = "x86_64-pc-linux-gnu"

@_ZN7rocksdb16ThreadStatusUtil27thread_updater_local_cache_E = thread_local global ptr null, align 8

; Function Attrs: mustprogress uwtable
define void @_ZN7rocksdb16ThreadStatusUtil31IncreaseThreadOperationPropertyEim(i32 noundef %0, i64 noundef %1) #3 align 2 {
  %3 = alloca i32, align 4
  %4 = alloca i64, align 8
  store i32 %0, ptr %3, align 4, !tbaa !58
  store i64 %1, ptr %4, align 8, !tbaa !54
  %5 = call align 8 ptr @llvm.threadlocal.address.p0(ptr align 8 @_ZN7rocksdb16ThreadStatusUtil27thread_updater_local_cache_E)
  %6 = load ptr, ptr %5, align 8, !tbaa !43
  %7 = icmp eq ptr %6, null
  br i1 %7, label %8, label %9

8:                                                ; preds = %2
  br label %14

9:                                                ; preds = %2
  %10 = call align 8 ptr @llvm.threadlocal.address.p0(ptr align 8 @_ZN7rocksdb16ThreadStatusUtil27thread_updater_local_cache_E)
  %11 = load ptr, ptr %10, align 8, !tbaa !43
  %12 = load i32, ptr %3, align 4, !tbaa !58
  %13 = load i64, ptr %4, align 8, !tbaa !54
  call void @_ZN7rocksdb19ThreadStatusUpdater31IncreaseThreadOperationPropertyEim(ptr noundef nonnull align 8 dereferenceable(216) %11, i32 noundef %12, i64 noundef %13)
  br label %14

14:                                               ; preds = %9, %8
  ret void
}